Certificate:
    Data:
        Version: 3 (0x2)
        Serial Number: 1 (0x1)
    Signature Algorithm: sha256WithRSAEncryption
        Issuer: C=DE, ST=NRW, L=Herford, O=DNN Digital-nerv.net, OU=Freifunk Herford Exit, CN=DNN Digital-nerv.net Freifunk CA/name=exit/emailAddress=freifunk@digital-nerv.net
        Validity
            Not Before: Jun 26 10:23:41 2016 GMT
            Not After : Jun 24 10:23:41 2026 GMT
        Subject: C=DE, ST=NRW, L=Herford, O=DNN Digital-nerv.net, OU=Freifunk Herford Exit, CN=exit.digital-nerv.net/name=exit/emailAddress=freifunk@digital-nerv.net
        Subject Public Key Info:
            Public Key Algorithm: rsaEncryption
                Public-Key: (2048 bit)
                Modulus:
                    00:96:a4:fc:82:ed:a7:5f:3b:cb:f3:f3:ab:b7:fc:
                    ba:dc:e2:db:5e:29:77:05:51:d1:c5:37:e8:a4:eb:
                    af:84:26:3a:d2:b1:1a:03:b9:eb:e5:5b:60:f0:35:
                    80:c4:6a:0c:80:f9:87:f5:33:5b:d1:02:24:16:45:
                    27:1d:de:9c:bd:21:19:72:0f:91:69:a5:01:a5:de:
                    3e:5c:61:52:08:55:fe:29:6d:ad:82:b8:87:48:bc:
                    b1:71:42:0a:ba:22:6f:72:05:5a:71:4a:5c:b7:41:
                    7a:7b:98:f8:39:52:e3:aa:7b:31:b2:c6:b8:f5:5a:
                    e4:7c:bc:35:8f:11:c5:7d:65:34:5d:cb:37:64:d9:
                    bd:54:48:45:7e:d1:7e:b6:24:b9:ed:ff:04:ea:04:
                    d2:5f:21:77:5f:86:ab:35:59:25:ab:fb:f1:41:b6:
                    27:2d:25:67:5f:52:ad:9c:e1:ca:c0:cf:ac:83:5f:
                    f9:f2:b0:14:a1:55:f3:73:68:c4:a0:91:ea:5d:47:
                    b7:ab:9c:6d:3b:bd:7e:73:c6:f7:80:8d:63:be:f3:
                    83:71:32:0c:f0:c9:c7:89:63:e1:6d:84:ab:3e:c3:
                    c6:50:e8:08:2f:d4:11:8d:ea:0b:7c:19:c1:ea:15:
                    02:d7:38:b6:4c:20:b5:ad:2c:8a:3f:46:c6:6e:41:
                    80:0d
                Exponent: 65537 (0x10001)
        X509v3 extensions:
            X509v3 Basic Constraints:
                CA:FALSE
            Netscape Cert Type:
                SSL Server
            Netscape Comment:
                Easy-RSA Generated Server Certificate
            X509v3 Subject Key Identifier:
                A5:5B:09:BD:3F:7F:A4:58:A2:1E:F6:A9:FA:46:48:B2:8E:CA:3F:2E
            X509v3 Authority Key Identifier:
                keyid:77:1B:89:E4:12:6C:15:13:75:2F:9F:D7:BE:B3:38:9D:2F:32:6A:20
                DirName:/C=DE/ST=NRW/L=Herford/O=DNN Digital-nerv.net/OU=Freifunk Herford Exit/CN=DNN Digital-nerv.net Freifunk CA/name=exit/emailAddress=freifunk@digital-nerv.net
                serial:D7:B8:E8:FF:B7:6A:14:DB

            X509v3 Extended Key Usage:
                TLS Web Server Authentication
            X509v3 Key Usage:
                Digital Signature, Key Encipherment
            X509v3 Subject Alternative Name:
                DNS:exit
    Signature Algorithm: sha256WithRSAEncryption
         74:5f:0f:67:47:a9:3d:f9:e0:7f:48:df:3d:89:16:bb:a9:68:
         13:89:4e:f5:ad:c0:3d:6a:b4:af:25:89:9f:04:ac:98:b5:7a:
         ad:26:d6:02:e1:9c:d0:d7:0f:07:9e:e2:d9:20:ba:db:bd:b8:
         a6:a0:bc:17:39:7d:bc:46:99:0d:17:24:4f:db:1a:20:94:e1:
         ae:8e:43:8b:04:0c:60:d3:5d:71:2c:a0:20:53:66:96:8e:f5:
         0f:14:b5:54:f7:4b:98:34:4d:e9:d4:07:2e:52:8e:4a:49:64:
         5c:69:d8:f7:6f:f7:85:9a:eb:30:e5:ee:cd:e5:83:82:3a:74:
         91:95:b7:ea:4a:b0:0b:34:51:b7:fc:81:66:18:34:48:79:2a:
         35:49:f5:18:c2:0a:23:34:1a:c2:d1:c2:fa:1a:e3:87:ce:1f:
         05:58:70:29:58:0e:47:9e:ff:d4:c5:13:f4:58:d6:a2:e7:90:
         19:d2:4e:6e:d2:b3:38:d1:f1:d7:db:c7:d9:66:04:4d:24:39:
         5f:0a:b5:f5:1e:ea:a3:90:1b:fd:1f:07:2f:3c:bd:6d:27:db:
         f9:9d:87:d9:5e:fd:1d:9b:26:23:f4:35:73:9f:c3:85:c4:50:
         8b:af:ae:e9:c4:11:85:14:ea:8c:6b:8a:af:ed:fb:09:3f:22:
         d3:b5:f5:fa
-----BEGIN CERTIFICATE-----
MIIFxzCCBK+gAwIBAgIBATANBgkqhkiG9w0BAQsFADCB0DELMAkGA1UEBhMCREUx
DDAKBgNVBAgTA05SVzEQMA4GA1UEBxMHSGVyZm9yZDEdMBsGA1UEChMURE5OIERp
Z2l0YWwtbmVydi5uZXQxHjAcBgNVBAsTFUZyZWlmdW5rIEhlcmZvcmQgRXhpdDEp
MCcGA1UEAxMgRE5OIERpZ2l0YWwtbmVydi5uZXQgRnJlaWZ1bmsgQ0ExDTALBgNV
BCkTBGV4aXQxKDAmBgkqhkiG9w0BCQEWGWZyZWlmdW5rQGRpZ2l0YWwtbmVydi5u
ZXQwHhcNMTYwNjI2MTAyMzQxWhcNMjYwNjI0MTAyMzQxWjCBxTELMAkGA1UEBhMC
REUxDDAKBgNVBAgTA05SVzEQMA4GA1UEBxMHSGVyZm9yZDEdMBsGA1UEChMURE5O
IERpZ2l0YWwtbmVydi5uZXQxHjAcBgNVBAsTFUZyZWlmdW5rIEhlcmZvcmQgRXhp
dDEeMBwGA1UEAxMVZXhpdC5kaWdpdGFsLW5lcnYubmV0MQ0wCwYDVQQpEwRleGl0
MSgwJgYJKoZIhvcNAQkBFhlmcmVpZnVua0BkaWdpdGFsLW5lcnYubmV0MIIBIjAN
BgkqhkiG9w0BAQEFAAOCAQ8AMIIBCgKCAQEAlqT8gu2nXzvL8/Ort/y63OLbXil3
BVHRxTfopOuvhCY60rEaA7nr5Vtg8DWAxGoMgPmH9TNb0QIkFkUnHd6cvSEZcg+R
aaUBpd4+XGFSCFX+KW2tgriHSLyxcUIKuiJvcgVacUpct0F6e5j4OVLjqnsxssa4
9VrkfLw1jxHFfWU0Xcs3ZNm9VEhFftF+tiS57f8E6gTSXyF3X4arNVklq/vxQbYn
LSVnX1KtnOHKwM+sg1/58rAUoVXzc2jEoJHqXUe3q5xtO71+c8b3gI1jvvODcTIM
8MnHiWPhbYSrPsPGUOgIL9QRjeoLfBnB6hUC1zi2TCC1rSyKP0bGbkGADQIDAQAB
o4IBszCCAa8wCQYDVR0TBAIwADARBglghkgBhvhCAQEEBAMCBkAwNAYJYIZIAYb4
QgENBCcWJUVhc3ktUlNBIEdlbmVyYXRlZCBTZXJ2ZXIgQ2VydGlmaWNhdGUwHQYD
VR0OBBYEFKVbCb0/f6RYoh72qfpGSLKOyj8uMIIBBQYDVR0jBIH9MIH6gBR3G4nk
EmwVE3Uvn9e+szidLzJqIKGB1qSB0zCB0DELMAkGA1UEBhMCREUxDDAKBgNVBAgT
A05SVzEQMA4GA1UEBxMHSGVyZm9yZDEdMBsGA1UEChMURE5OIERpZ2l0YWwtbmVy
di5uZXQxHjAcBgNVBAsTFUZyZWlmdW5rIEhlcmZvcmQgRXhpdDEpMCcGA1UEAxMg
RE5OIERpZ2l0YWwtbmVydi5uZXQgRnJlaWZ1bmsgQ0ExDTALBgNVBCkTBGV4aXQx
KDAmBgkqhkiG9w0BCQEWGWZyZWlmdW5rQGRpZ2l0YWwtbmVydi5uZXSCCQDXuOj/
t2oU2zATBgNVHSUEDDAKBggrBgEFBQcDATALBgNVHQ8EBAMCBaAwDwYDVR0RBAgw
BoIEZXhpdDANBgkqhkiG9w0BAQsFAAOCAQEAdF8PZ0epPfngf0jfPYkWu6loE4lO
9a3APWq0ryWJnwSsmLV6rSbWAuGc0NcPB57i2SC62724pqC8Fzl9vEaZDRckT9sa
IJThro5DiwQMYNNdcSygIFNmlo71DxS1VPdLmDRN6dQHLlKOSklkXGnY92/3hZrr
MOXuzeWDgjp0kZW36kqwCzRRt/yBZhg0SHkqNUn1GMIKIzQawtHC+hrjh84fBVhw
KVgOR57/1MUT9FjWoueQGdJObtKzONHx19vH2WYETSQ5Xwq19R7qo5Ab/R8HLzy9
bSfb+Z2H2V79HZsmI/Q1c5/DhcRQi6+u6cQRhRTqjGuKr+37CT8i07X1+g==
-----END CERTIFICATE-----
